; Function Attrs: nounwind uwtable
define internal i32 @cvSpilsPrecSolveBWrapper(double noundef %0, ptr noundef %1, ptr noundef %2, ptr noundef %3, ptr noundef %4, double noundef %5, double noundef %6, i32 noundef %7, ptr noundef %8, ptr noundef %9) #0 {
  %11 = getelementptr inbounds nuw i8, ptr %8, i64 2192
  %12 = load ptr, ptr %11, align 8, !tbaa !52
  %13 = getelementptr inbounds nuw i8, ptr %12, i64 48
  %14 = load ptr, ptr %13, align 8, !tbaa !68
  %15 = getelementptr inbounds nuw i8, ptr %14, i64 72
  %16 = load ptr, ptr %15, align 8, !tbaa !64
  %17 = getelementptr inbounds nuw i8, ptr %12, i64 144
  %18 = load ptr, ptr %17, align 8, !tbaa !69
  %19 = getelementptr inbounds nuw i8, ptr %12, i64 480
  %20 = load ptr, ptr %19, align 8, !tbaa !70
  %21 = tail call i32 %18(ptr noundef %8, double noundef %0, ptr noundef %20, ptr noundef null) #5
  %.not = icmp eq i32 %21, 0
  br i1 %.not, label %23, label %22

22:                                               ; preds = %10
  tail call void (ptr, i32, ptr, ptr, ptr, ...) @cvProcessError(ptr noundef nonnull %8, i32 noundef -1, ptr noundef nonnull @.str, ptr noundef nonnull @.str.44, ptr noundef nonnull @.str.42) #5
  br label %30

23:                                               ; preds = %10
  %24 = getelementptr inbounds nuw i8, ptr %16, i64 32
  %25 = load ptr, ptr %24, align 8, !tbaa !67
  %26 = load ptr, ptr %19, align 8, !tbaa !70
  %27 = getelementptr inbounds nuw i8, ptr %14, i64 64
  %28 = load ptr, ptr %27, align 8, !tbaa !71
  %29 = tail call i32 %25(double noundef %0, ptr noundef %26, ptr noundef %1, ptr noundef %2, ptr noundef %3, ptr noundef %4, double noundef %5, double noundef %6, i32 noundef %7, ptr noundef %28, ptr noundef %9) #5
  br label %30

30:                                               ; preds = %23, %22
  %.0 = phi i32 [ -1, %22 ], [ %29, %23 ]
  ret i32 %.0
}